target datalayout = "e-m:e-p270:32:32-p271:32:32-p272:64:64-i64:64-i128:128-f80:128-n8:16:32:64-S128"
target triple = "x86_64-pc-linux-gnu"

%struct.Extra_BitMat_t_ = type { ptr, i32, i32, i32, i32, i32, i32, i32 }

; Function Attrs: nounwind uwtable
define i32 @Extra_BitMatrixCountOnesUpper(ptr noundef %0) #0 {
  %2 = alloca ptr, align 8
  %3 = alloca i32, align 4
  %4 = alloca i32, align 4
  %5 = alloca i32, align 4
  store ptr %0, ptr %2, align 8
  store i32 0, ptr %5, align 4
  store i32 0, ptr %3, align 4
  br label %6

6:                                                ; preds = %46, %1
  %7 = load i32, ptr %3, align 4
  %8 = load ptr, ptr %2, align 8
  %9 = getelementptr inbounds %struct.Extra_BitMat_t_, ptr %8, i32 0, i32 1
  %10 = load i32, ptr %9, align 8
  %11 = icmp slt i32 %7, %10
  br i1 %11, label %12, label %49

12:                                               ; preds = %6
  %13 = load i32, ptr %3, align 4
  %14 = add nsw i32 %13, 1
  store i32 %14, ptr %4, align 4
  br label %15

15:                                               ; preds = %42, %12
  %16 = load i32, ptr %4, align 4
  %17 = load ptr, ptr %2, align 8
  %18 = getelementptr inbounds %struct.Extra_BitMat_t_, ptr %17, i32 0, i32 1
  %19 = load i32, ptr %18, align 8
  %20 = icmp slt i32 %16, %19
  br i1 %20, label %21, label %45

21:                                               ; preds = %15
  %22 = load ptr, ptr %2, align 8
  %23 = getelementptr inbounds %struct.Extra_BitMat_t_, ptr %22, i32 0, i32 0
  %24 = load ptr, ptr %23, align 8
  %25 = load i32, ptr %3, align 4
  %26 = sext i32 %25 to i64
  %27 = getelementptr inbounds ptr, ptr %24, i64 %26
  %28 = load ptr, ptr %27, align 8
  %29 = load i32, ptr %4, align 4
  %30 = ashr i32 %29, 5
  %31 = sext i32 %30 to i64
  %32 = getelementptr inbounds i32, ptr %28, i64 %31
  %33 = load i32, ptr %32, align 4
  %34 = load i32, ptr %4, align 4
  %35 = and i32 %34, 31
  %36 = shl i32 1, %35
  %37 = and i32 %33, %36
  %38 = icmp ugt i32 %37, 0
  %39 = zext i1 %38 to i32
  %40 = load i32, ptr %5, align 4
  %41 = add nsw i32 %40, %39
  store i32 %41, ptr %5, align 4
  br label %42

42:                                               ; preds = %21
  %43 = load i32, ptr %4, align 4
  %44 = add nsw i32 %43, 1
  store i32 %44, ptr %4, align 4
  br label %15, !llvm.loop !11

45:                                               ; preds = %15
  br label %46

46:                                               ; preds = %45
  %47 = load i32, ptr %3, align 4
  %48 = add nsw i32 %47, 1
  store i32 %48, ptr %3, align 4
  br label %6, !llvm.loop !12

49:                                               ; preds = %6
  %50 = load i32, ptr %5, align 4
  ret i32 %50
}