; Function Attrs: nofree norecurse nosync nounwind memory(read, inaccessiblemem: none) uwtable
define i32 @Extra_BitMatrixCountOnesUpper(ptr noundef readonly captures(none) %0) local_unnamed_addr #10 {
  %2 = getelementptr inbounds nuw i8, ptr %0, i64 8
  %3 = load i32, ptr %2, align 8
  %4 = icmp sgt i32 %3, 0
  br i1 %4, label %.lr.ph18.preheader, label %._crit_edge

.lr.ph18.preheader:                               ; preds = %1
  %5 = zext nneg i32 %3 to i64
  %wide.trip.count = zext nneg i32 %3 to i64
  br label %.lr.ph18

.loopexit:                                        ; preds = %11, %.lr.ph18
  %.1.lcssa = phi i32 [ %.017, %.lr.ph18 ], [ %19, %11 ]
  %exitcond21.not = icmp eq i64 %indvars.iv.next, %wide.trip.count
  br i1 %exitcond21.not, label %._crit_edge, label %.lr.ph18, !llvm.loop !11

.lr.ph18:                                         ; preds = %.lr.ph18.preheader, %.loopexit
  %indvars.iv = phi i64 [ 0, %.lr.ph18.preheader ], [ %indvars.iv.next, %.loopexit ]
  %.017 = phi i32 [ 0, %.lr.ph18.preheader ], [ %.1.lcssa, %.loopexit ]
  %indvars.iv.next = add nuw nsw i64 %indvars.iv, 1
  %6 = icmp samesign ult i64 %indvars.iv.next, %5
  br i1 %6, label %.lr.ph, label %.loopexit

.lr.ph:                                           ; preds = %.lr.ph18
  %7 = load ptr, ptr %0, align 8
  %8 = getelementptr inbounds nuw ptr, ptr %7, i64 %indvars.iv
  %9 = load ptr, ptr %8, align 8
  %10 = trunc nuw nsw i64 %indvars.iv.next to i32
  br label %11

11:                                               ; preds = %.lr.ph, %11
  %.115 = phi i32 [ %.017, %.lr.ph ], [ %19, %11 ]
  %.01214 = phi i32 [ %10, %.lr.ph ], [ %20, %11 ]
  %12 = lshr i32 %.01214, 5
  %13 = zext nneg i32 %12 to i64
  %14 = getelementptr inbounds nuw i32, ptr %9, i64 %13
  %15 = load i32, ptr %14, align 4
  %16 = and i32 %.01214, 31
  %17 = lshr i32 %15, %16
  %18 = and i32 %17, 1
  %19 = add nsw i32 %18, %.115
  %20 = add nuw nsw i32 %.01214, 1
  %exitcond.not = icmp eq i32 %20, %3
  br i1 %exitcond.not, label %.loopexit, label %11, !llvm.loop !12

._crit_edge:                                      ; preds = %.loopexit, %1
  %.0.lcssa = phi i32 [ 0, %1 ], [ %.1.lcssa, %.loopexit ]
  ret i32 %.0.lcssa
}